(lp1
S'AIzaSyDyWOBCIjBvNEWbzSyOCbho_f0kDMB7v84'
p2
aS'AIzaSyC9w8wX6lc_6ZmFplEBQ_dKsir6RjWjgHY'
p3
aS'AIzaSyAgx944AFcKKOL6XvkL_lPpa-2Yg-EgnOg'
p4
aS'AIzaSyA4D2_FYEyOtbFr3T6LG3mWOhd0p8Wy6v8'
p5
aS'AIzaSyDvLTxf41wlYFATe530VBYgdnDEfKS9aKQ'
p6
aS'AIzaSyBqufzj_HfDnuTi0vY24ENLVh9bkSdzPao'
p7
aS'AIzaSyAOe-ZQGSlyLsvaZwOXaxzK7Q1-LPBvCCg'
p8
aS'AIzaSyAzlkZ0dQDWXQgyfQNLr8Ivy_yBJEs4F14'
p9
aS'AIzaSyCLcf09ZoZ1xjKeUpUvuhEaTMQo-r90IRY'
p10
aS'AIzaSyAy2m3lcm6KcoV7LJ2jD579zrDcJV0WIK4'
p11
aS'AIzaSyAu9MwG7XSQhHHJLsOL-uA3t7XNmGzd3DU'
p12
aS'AIzaSyAqZQsyvlIX8k65JF-XGtpDQfm2rsV2aUs'
p13
aS'AIzaSyBxzW9inqkxa92ND7Bb-lrvb8v1Mb9WNGg'
p14
aS'AIzaSyDg45KWl6oi7GL5OLSUJyj594JnJTmBhRQ'
p15
aS'AIzaSyD0f7_b9kYJttPvhROVEe2Hd7LwPqrqYsc'
p16
aS'AIzaSyDGWGDREHgZB89bycoEjWZdLhfcMIGT-dI'
p17
aS'AIzaSyBbHf1XHIBWrhiNXoO0jJm8USjDTVu2O7A'
p18
aS'AIzaSyDdbrMsxdqIC0LgMaz-Cs9jHxIEgh3uyzA'
p19
aS'AIzaSyD85TG-yGfi0uWtb740WwdqEWQoIfA3IyQ'
p20
aS'AIzaSyBK1YXZxc-1ZiSzT6CQ9t9_V3tIl5Hy9dU'
p21
aS'AIzaSyAjk2RRFpaUHeUTzjiTTOi1nGIuP5zHT1Q'
p22
aS'AIzaSyCQZjt0ToSK04E-xo07tVaL6JqZbGeY2qU'
p23
aS'AIzaSyBuN1coVt4VSx8WEWnJCf2MdOR8qpJV74I'
p24
aS'AIzaSyAxRIPBkVG_5UlMJjgL4cCQNyHz1irn0W4'
p25
aS'AIzaSyCqylr-0eZ5G4ooc5FEv8X13Qs02H5IewM'
p26
aS'AIzaSyAh_cuG7T4-uFi4Ji-MfGOrk5UJ5pyKsHI'
p27
aS'AIzaSyC6Kuyd9JNpT1wO8k3JeJy3E-fPERz1P9k'
p28
aS'AIzaSyB8IcfYENeElCQyrg5qO7z1YumbrZ7wHKc'
p29
aS'AIzaSyD0vLQh7L_11qeGgcWbvTRYJtUGOSHW5zA'
p30
aS'AIzaSyCIDwtWjpYxoBuhufkGiSBgu3sE_v_dE8g'
p31
aS'AIzaSyCmNQeJvQzvLLmHGSxJItz71eNsjApJHKg'
p32
aS'AIzaSyDl7yq8ouKsddJjsOXn42OizEnx-MlTV7w'
p33
aS'AIzaSyBlxv4WvZC21pXfIJYJTm4i56YxSoth_08'
p34
aS'AIzaSyC36XXDxxpiT4Ju5RoiG9jJ-Pj1pR0fb7g'
p35
aS'AIzaSyAcXWINQ-Zt0VLDnHQqbozPdJpIRD6mdGE'
p36
aS'AIzaSyCBTrrpfR5o_sQjBXUnKd9qo4QqaeW-F70'
p37
aS'AIzaSyBj_-oXxpnpIjAonS8OboDrpU-iA2uYnw0'
p38
aS'AIzaSyBNJzKQBT9hsaZz9_IjAuq23aOMrGEdadg'
p39
aS'AIzaSyAeFi62NOfALEns6n4_shESZkrMG8oB9ds'
p40
aS'AIzaSyBxnsO6-PkEcrcQhxUimL8CPtM8kUaYLXU'
p41
aS'AIzaSyBRtMSe0DzzjfEZ4U2aSJtvJmYdUFFEhjQ'
p42
aS'AIzaSyBqoKV5kubcM4Kdf0J9XLO0OCsFr3tEEUc'
p43
aS'AIzaSyBZ23w8HbedwdVZjCen6Xa1rI2WH2qJUUQ'
p44
aS'AIzaSyAkW_ZalXmTwh2KAVd87Hby9QECiYxG_rI'
p45
aS'AIzaSyDjhHXiN0BvnhtgG5i9OX273fkR0jVbQ20'
p46
aS'AIzaSyAzdrVql9TvpfdENFtJkt28K66iHb6YTrg'
p47
aS'AIzaSyCqZ1LMe5PT4Vp0DEcHWevVOaNSuU0SL1o'
p48
aS'AIzaSyBOogRP2pWdzfe2cN7bN_obdy5fBnohwT0'
p49
aS'AIzaSyDqolEHLb4K1XksIzNMRqny7zg1gfkk9rI'
p50
aS'AIzaSyAWSpNI3ohwODa91UYkWAs7x6n71IezJnE'
p51
aS'AIzaSyBKSXdX4LUsUFU3XxyVDVBIzcADXYiSAxE'
p52
aS'AIzaSyBwjyNHia_XhCDPpYYvsZn6FWiC5AUbyMc'
p53
aS'AIzaSyC-_qTUQJfVTVDLAlVY1lzmbylZgUZ6De0'
p54
aS'AIzaSyA-0UCnRE5givWGq171WTjqkfqYXP8WjaU'
p55
aS'AIzaSyBDGKYB_4wusGW_tUxlU8BbnuexaYdNMV4'
p56
aS'AIzaSyA9oFqecVpjF9J84XICD9oPmAeNZEbwTJk'
p57
aS'AIzaSyC32Xe-h1zx3BZLLsvCxR_wyT0o3FHbRH0'
p58
aS'AIzaSyBGRaf4CHGj0tqiJUn4vDHJFcWl5achX2Q'
p59
aS'AIzaSyAT-l8WvAgOp-WCCVuq6pNjyFWen5tM6mk'
p60
aS'AIzaSyBTioYTAQgXJYNy8k2S5DkoMm8xGIASyI0'
p61
aS'AIzaSyDM4jSfz37tOqyI7xnU82f3cRilgPHpG0Q'
p62
aS'AIzaSyAel0C7Q-KDtJDUBHHRY9T2nFo5XF7hRg8'
p63
aS'AIzaSyCQsjXzvUqlN6l7LdA9CM8BBPaHCG5NYcg'
p64
aS'AIzaSyBteE5Yubq1gUhmNPIyxelL83QNVuFC14g'
p65
aS'AIzaSyAriSHsN27HqgzeVUcFnJgqAwRnOcoIiZM'
p66
aS'AIzaSyCPSTv1B86mUH87ECTYUgac7_rZD8Ololo'
p67
aS'AIzaSyAzk-vxA9EvCFQ_1St956cZwSaUsAXuSGs'
p68
aS'AIzaSyAm6zKOEHuxq4KXxxQJjH4MJWRiU0sqxSg'
p69
aS'AIzaSyCTNvBy_zBfxHsBWxklTGl7-6qmaEI_TT8'
p70
aS'AIzaSyBdilWEBsD7ITY4gJ6BXjoDnMReXYsFPt0'
p71
aS'AIzaSyA_A1HFsKW65ND5J68en5HB-Hfx9N5Ddas'
p72
aS'AIzaSyCmxPhbu-5CW0MKKy5Swphyk31HwLqxh6c'
p73
aS'AIzaSyCLBYst8lpcT6qTzHGeyflRnn0LvP3pFrE'
p74
aS'AIzaSyB82QOgK4tXzkxoHesywLgB5x1x4QMTgIg'
p75
aS'AIzaSyAVfn--MLXHqdoLDQqCHKHdk0kZxXtoqbI'
p76
aS'AIzaSyAFZfkOVkkA9EVAQ2EWxrMNBoD4dUpxx2U'
p77
aS'AIzaSyAXvZ2Fkn-a904-xmTh9LXbHVsj06hPjgU'
p78
aS'AIzaSyC4MTR37f2-AF4Ck5TfkL7JMYuvkhUkzx0'
p79
aS'AIzaSyD77JXa9ggS9U_-se6nz3pOJXwk6Hy5ZnA'
p80
aS'AIzaSyDp4HT0VtpaKfLA90R5EEwETYU3ju4Ai5U'
p81
aS'AIzaSyBpD0Tp_jJH_L4eSLzWRlWyOVjG5sYXE9k'
p82
aS'AIzaSyB_sZdCKm7dCpKL02Y9txMGi0P32tdqdUk'
p83
aS'AIzaSyASaiE-dh9zj9JQ6zD0hgdP5Krvr7UdDiw'
p84
aS'AIzaSyCZLEzx-YrC6JSHKonPhrY4aOgBHcw6PCo'
p85
aS'AIzaSyCzSej1W8l0ILY0V5D6haFGrHjR886Bq8I'
p86
aS'AIzaSyAWKexUmb7V09WbwUY7pMihOJIxB0f6mb4'
p87
aS'AIzaSyBu0BpKLuUYGGCUDDB8n6EBy5iijNsqWh8'
p88
aS'AIzaSyBaKogeyH-_Sswb8-xK0nyYIOGUc2yzMQ0'
p89
aS'AIzaSyBOCP45nlxsexyDkpAlLJLheHkCsLXKeOA'
p90
aS'AIzaSyDlN198SwttRnN2EcjnMaFSOlzFNxAMbMQ'
p91
aS'AIzaSyBwUJSzoAjmZkni1WAk4nlqQl5ejANhuZ8'
p92
aS'AIzaSyCskGp2tqh76mZsx2-lgRpvhdsd-9rDvMU'
p93
aS'AIzaSyDWq5T8VRKlWlIc1uwIJurPFZkmYPvHl1I'
p94
aS'AIzaSyDFrSOkjGl4MIrEuFgom4-e5TkJaPW3S3Y'
p95
aS'AIzaSyBMCjt8cqdSXWXb5hrptaN0zIEepeTULLs'
p96
aS'AIzaSyBzNBKSLJzAFih-zr69nI5qMUj2GSbXA6A'
p97
aS'AIzaSyCDE4rW3-mPyGUCpMJFfCKkVuVsGFY_WB0'
p98
aS'AIzaSyDQcIbn3Tf1Pmoo5R0_ZdClVeXO4aAjEHo'
p99
aS'AIzaSyDJjKBYyOvhp8fWetoxG1JbsOTmPV__c9k'
p100
aS'AIzaSyBAypBrT7eEw20rvOd34WQzf4qdsMPJdLY'
p101
aS'AIzaSyABqafybVI_R6cgSA6605mbalUS6jckfwM'
p102
aS'AIzaSyBsGNr7G8QvXplcvygLXx_ZlJ2ueZ7ENFQ'
p103
aS'AIzaSyB8W14DdYS6WuE4MiuoGtZszaG2pUzc7zs'
p104
aS'AIzaSyBnnW6zPxKwJ6874Ftzu1W6wtklZQ8YkIY'
p105
aS'AIzaSyC33ZcrZFoad9F3E90w7xXBBqkuaTel9g4'
p106
aS'AIzaSyChMQCYsQMnvM43Vxodw7pxh4iI3DSBSz4'
p107
aS'AIzaSyAnmU7FIUZKxNBWep4oPVz5HbbUk90JV8U'
p108
aS'AIzaSyCFNAM6qNYE0odM5_anOuLJG4nDwFqSiIk'
p109
aS'AIzaSyB1FQLVLLmKvBF4v8umTGutJ3L-9iFAh9w'
p110
aS'AIzaSyCIIvUj8b5imtZMK2BrH17fvjVfwL9LnOQ'
p111
aS'AIzaSyAabNa3-KXhQCqePnjxsV6_fJwuRB5e0Js'
p112
aS'AIzaSyAjdLQSC134tNkR4B2-JR10PzQdZfo-uKs'
p113
aS'AIzaSyDiEorRJKN_BFMM78qbsZjdWQzkGhYqrck'
p114
aS'AIzaSyAWXUi02MEdDWnejaYISHdzwt3anRzdtpc'
p115
aS'AIzaSyCPqjF4iAMN7RK5-bKV_pjwPrl38bk-0aU'
p116
aS'AIzaSyBVHMVaFC-OjPNWyKbXXXJXi-8wSowzVH8'
p117
aS'AIzaSyCz-xZae33i5NW2EwYJ5EBo_3QqUZnN2-Q'
p118
aS'AIzaSyDmLb3i7aQh5C15loXPUM02OPug67XY3zI'
p119
aS'AIzaSyCauZGLXo3TjtOZLF7aAV4GKrVFg7lLKXk'
p120
aS'AIzaSyCJRCqq7s3T7150XubOI8S2Lige6RIFLb4'
p121
aS'AIzaSyB4swo3UYxUc6tONJqek3G0YdpL9stqRRQ'
p122
aS'AIzaSyC4hsoXRi8npeAxFGJriGSux0hyYERIzmg'
p123
aS'AIzaSyAktIXU8ZFhGR-a1JAVRgesJHyy9kHsZyo'
p124
aS'AIzaSyAIlK4oocKSXI_GALTweRXss8voozPSy68'
p125
aS'AIzaSyCT6EXZrUdL94rc_u20OIB_bHsnQgSTvSU'
p126
aS'AIzaSyAUZHRvGxknMtFVdl0wZaDgeQQDgCKb26Y'
p127
aS'AIzaSyCKR9tZdcswwo_rDduXgMboDrf-4YjYRws'
p128
aS'AIzaSyCE1ENX82Ov1i7gRyquovOc_WydlJYAUtU'
p129
aS'AIzaSyCejnltJTTjOzfsWn-5fdaxsiz0zrui5Rg'
p130
aS'AIzaSyD8LQvX2vCHxaiRQ9b3wqTqYxsgbj_7MSI'
p131
aS'AIzaSyDuJ1baKzGTntELVH9vLakEshKERB-kI8M'
p132
aS'AIzaSyCkl5uYajQ-0E5u6YJIMHpRAikfqA8dOR4'
p133
aS'AIzaSyBiMru3vwao-ksMr6OkxQrHFGQ2JJhyZvo'
p134
aS'AIzaSyBaj4QOvSB7s55DQ_eO1w6uiY7KakpfIAo'
p135
aS'AIzaSyDXPu8OLs6Osn7ClF6Z_0F-BGp3CnO-N7I'
p136
aS'AIzaSyAYaWNmPPkFpJfGphjNmQxH9jWev23IBG0'
p137
aS'AIzaSyA5ncCScsOHwtWLEBI1VAXzjIqWOJEhx40'
p138
aS'AIzaSyC2ap8QgGPNwBf_h3kLwdx5DvzD0s2QAoQ'
p139
aS'AIzaSyAY9-TDraXOLT5b1ovh_TRBldpUhq-PKu0'
p140
aS'AIzaSyCsrsz0wD72_cFx8WrpTbe68q30Mq6Jofw'
p141
aS'AIzaSyDbwhu1PwXYwzJaq4MK3pxSMjZbJSftWIE'
p142
aS'AIzaSyDxLedvZrYTBpdv-1e7aMy0S-bv87izT1Y'
p143
aS'AIzaSyDeDA2U4zUm8rIfpBH5F-5QVs1rLTV0P6c'
p144
aS'AIzaSyBaAAXIIdC9LSEd6kQgz4tVMxfvrSjiSl4'
p145
aS'AIzaSyBbqNMX-NCZ9b1k7FWK7KhktsYgB4piiwY'
p146
aS'AIzaSyDl5tathvaAYGEDKktMG4uJ8OQLyUXofNE'
p147
aS'AIzaSyAwGZ2CvqThT4DrEyddgYr-4JxkmDBRZ1Q'
p148
aS'AIzaSyCHcFMzXYBenvuf1Ls8tvDvz6rmPLCdZUg'
p149
aS'AIzaSyDek8GuJo-VCBPxPvpEc5nopCylthK_YFQ'
p150
aS'AIzaSyCoCJ0ZovzWAZDZ-RX9mBzHM0Zfx7-VisE'
p151
aS'AIzaSyAf0cn-RkBgO5Bm8dJM9wPry4F1QPuAuZM'
p152
aS'AIzaSyBjzqODr9q__kWxMTqt1jJFjBZR3qVVHto'
p153
aS'AIzaSyCFwQnuiKbmmDcnxt6kWqc1VunzAAhEeLI'
p154
aS'AIzaSyBhk-HSqBeNb7Q3IYHCIn7Oj7ad1WoUQd8'
p155
aS'AIzaSyAFDZXLXMTm5kKsOGooe7ROmZkUv44VRbI'
p156
aS'AIzaSyB2FWz9LjZXkphvGZeeWj3IuYUurDYL25I'
p157
aS'AIzaSyDtRrnOZXdDL03wnTLpQ-w183yG7ydnAeI'
p158
aS'AIzaSyBka5EC-x9FMghQIbdIzNxwvwezk9-4v-o'
p159
aS'AIzaSyBzjqT65JwrtJmILAc2b4ZjtMGa68KPMHc'
p160
aS'AIzaSyC-BVc0Y12sDSonVs2fcPqmZsDJaFnGkIM'
p161
aS'AIzaSyD1_YBZhJhQEziK5B4tHNpK_VyWfHAecWw'
p162
aS'AIzaSyBek9xgVz4P7jDsDx98LmtIB1GrzKcA_Qk'
p163
aS'AIzaSyAZlhQhy20og3q8VMioYBaRRxD4DktXSTs'
p164
aS'AIzaSyCcmediyM12pjfr1IElirUDR-tPb1RrfIE'
p165
aS'AIzaSyBzi5QDQmcUgYWOtIFMJsF6Vz0EakpSKtE'
p166
aS'AIzaSyCZBm4llUlEJpeU61dX98f--JnJU_VGW2Y'
p167
aS'AIzaSyDdO_p-KMr9P6lrUGwLMvEw7IO_GFb52q4'
p168
aS'AIzaSyDEh3RF-617PorCaANf43EHK46YrtqXyec'
p169
aS'AIzaSyDNlvDMdNccUnFdKbRP4LNR-1m2iSoKFE0'
p170
aS'AIzaSyD7DbGJg2M7glwG3lYHEy3QQfJdnkNlq3I'
p171
aS'AIzaSyAgJMQmDacPgqXsr_znCdSGaePT5iCtzr8'
p172
aS'AIzaSyAGEwNPZVYLnvqDjmMaTjRacW_dCXXY5fs'
p173
aS'AIzaSyB4sAYmB2RKw_FL1YuYhvohhK3gfYAJvdc'
p174
aS'AIzaSyAFUwJI1OwSvk1n1ILua2uMliDN68gYlqs'
p175
aS'AIzaSyA3ZgtTvVngDUnc_mlISotaXZhcIa4cDSI'
p176
aS'AIzaSyDZWvWGDSfFhqIp6IUJvBEhzCpVuerIg5s'
p177
aS'AIzaSyDoRbm8f_HzQqY7sr1VGo0SEardzwYh6tE'
p178
aS'AIzaSyDKHK82_UyRBWeCr3kb4sia7BFGl7OOHU4'
p179
aS'AIzaSyAEtkSvMiaUSlCRc1sq3VjRsRa3DTCyjNc'
p180
aS'AIzaSyDry9GKpy-NM8MEzj5DxWhqhqIsv6Qddn4'
p181
aS'AIzaSyCpPgaZYTmVtGMJ5nmlJHbJJ-tAiGi7AiU'
p182
aS'AIzaSyB-ZMLObL16HYAOKJjQMZD6n24YUGKNnkU'
p183
aS'AIzaSyCMN_kkWuAS7L2YJndYai6x4FYn0pVX7tw'
p184
aS'AIzaSyCMgXApx9sPyPwxpyrs04qe99sO4fCThpY'
p185
aS'AIzaSyD4j5KHSZvb4s6U6MBO5PYhgWkDt0Q7Ji0'
p186
aS'AIzaSyAH3VhbPkrlNtmvxAp6j2d5hXOk1O-Wrc0'
p187
aS'AIzaSyCQk1IATnBrS-TeZxsTMDaOw72dNDmf2z0'
p188
aS'AIzaSyDNYC6BPZQ-jMwBvA5t-tSjrMW0S7GWY8g'
p189
aS'AIzaSyCJ50Staqd3v8zQQ_r7KytIjQKyzPknx7U'
p190
aS'AIzaSyCOleu-XL603kX0Kw8OEvxf4YpgZI67SJo'
p191
aS'AIzaSyBInfTbNXJF13AIEBHIT1hculgSiKmfAwg'
p192
aS'AIzaSyABpOfyLmak0mRLUUuLKU6NpJ3i9cRxl60'
p193
aS'AIzaSyDH--QrIJUdEmnimmmC68LD_NcL0IGBcsE'
p194
aS'AIzaSyCujl__RorF21ziIhswiz2EACqoBUrpqJE'
p195
aS'AIzaSyAfRXF9mZ0HesuJwJRrXGCDZG_lLyui8Us'
p196
aS'AIzaSyDklQ2yfGAp6ySpMqSiQ4crtvUWjm7v9Do'
p197
aS'AIzaSyD8mHes8hSn25Gy43PVd5gkEo-Po_5CNF8'
p198
aS'AIzaSyB8e25q8jvg7HcOYtjU8eVSvk94D5tU1Sc'
p199
aS'AIzaSyDGqHLtbdaN48irV38rn9T3k_X7eGQdjSw'
p200
aS'AIzaSyDSdT0QdH3IFbS8UUGwLMtY-n9R6HwgrKg'
p201
aS'AIzaSyDNlFfzxqsGsHlWqvpzfg7uNEpJKMGPwPE'
p202
aS'AIzaSyB7j7KJv8BcB-4dhgUG2uwwVOtK2Blbmsk'
p203
aS'AIzaSyCnTJvHa5ScHkAd6Uq61EKpgqNxzQJYxY8'
p204
aS'AIzaSyB7mMF4X33Wc8QmUFtxMTBBIBkFUuJ3A-E'
p205
aS'AIzaSyDOgHciE0obcw35AcKSA1vMdHp0n-_C-ug'
p206
aS'AIzaSyAvjxaXN4khi2eItsrWne1q5Dt0DlwN1UY'
p207
aS'AIzaSyD-b4GZ48qxMqrDYhHYHrKaChv207dKNIM'
p208
aS'AIzaSyChgfDvieXMh7vYStIuVnLq9lgANvz1M7g'
p209
aS'AIzaSyBeouMOlpV7GjzeFxLV8O2pO6dZFumTGeY'
p210
aS'AIzaSyDezYJ2_ACJrpkigEgzSJ31crkrWW6I05o'
p211
aS'AIzaSyBZW_MWu5i2Wx4xRbZI5BSMF0i0uVdJ-rk'
p212
aS'AIzaSyDP3-zEDcgr8noO5nZzm0zoBTr5kYVmCvI'
p213
aS'AIzaSyCMBmLeyd_zEVBUQIRWwKbT0v2ZhPGqQfw'
p214
aS'AIzaSyDjt5NLb184qHzwMa5Zvh0vVtQgFy9etbY'
p215
aS'AIzaSyBbTOU0U07sqnN-GQ3LZY4qzwGES9M75aQ'
p216
aS'AIzaSyCJvOrOez_eZmXRM6WrCONqoRPgcOiUh-I'
p217
aS'AIzaSyA7O2sOjGkIeSGswT3whj76QApbJI1IVi4'
p218
aS'AIzaSyD3Sy2k52t66q5vWQnwAHQKsj9umXe03sQ'
p219
aS'AIzaSyBCacqzGjuuJkqn35Gl6nYI7AnURH23b1w'
p220
aS'AIzaSyBRtBR_cAsxWxHxo6B2PF_eLhAs7N67kzQ'
p221
aS'AIzaSyAcahpiEF1407K9r7dods2TDAvlvtLxMmg'
p222
aS'AIzaSyDEXgn2Oarh-Az3LeMH37Hgb3CV8fUcy9Q'
p223
aS'AIzaSyBRvH9cLPwRX5jzgWZQQo4JXnVWhM5mGy0'
p224
aS'AIzaSyBfDRR42Q3DmaDO00OGjwocb1DK4gDw538'
p225
aS'AIzaSyA8Px2G7uOjkEkRtIm5mt8iyaJFiMsXFDk'
p226
aS'AIzaSyDRRbrjzLJht-QTub6B2ENbTiBwbx9O-lU'
p227
aS'AIzaSyB6sgJuQEHFooYzJD8wEj0L0ltxUze3aUI'
p228
aS'AIzaSyBqhPGkpb9oMUPtHZphPs-SnH8Arsj_wXE'
p229
aS'AIzaSyCDLcEkKOSW2c9UoHD4FzQaTyBYLesevWA'
p230
aS'AIzaSyDT9tNomOnkJjlfjlPIm32vnEFzpvmylYU'
p231
aS'AIzaSyBo8hKHxVitk_FVbnf1wxjVT7XPx8KlhJo'
p232
aS'AIzaSyDd3fQgf5HNfFmK5ltXsorU9KdzZDK2C6U'
p233
aS'AIzaSyDFRdutFt7WcMfz1WeSGdiaOa29Yb_djTo'
p234
aS'AIzaSyB1-IMcgzMheK4VoB1_IvMCRSMvg5RFCnk'
p235
aS'AIzaSyDjNqfci84lMIwXWqUJECF9Qv_UEEOTbyg'
p236
aS'AIzaSyBSY7HgW-Rym88BbRFQs6K0-aUXO2D5H_s'
p237
aS'AIzaSyBNvkvd5ioU9OTiGK8oP9VfKPBirgFLiVs'
p238
aS'AIzaSyDqKTLIIxEYIkoC6dh6Qhy_yll8hpT-6YA'
p239
aS'AIzaSyBNpjf3g3rOvu2yVX89-UdhEMtK28cxvvY'
p240
aS'AIzaSyDsmIdrpj2f8F48rPet-4m0-scVPS7TnEQ'
p241
aS'AIzaSyA94skbFkEF4NMUaSO4uZ9kBQmaVBDSgG8'
p242
aS'AIzaSyCbeAFmjJKv_v1PLrRiGYqUqGkuAdpXSMI'
p243
aS'AIzaSyDKBFiOvZXQAPjVvqAYWkX8XckjvPAQ1hw'
p244
aS'AIzaSyAiTuaBQ1QNMomWg9Tt4SG8iOUwkVMq4_Q'
p245
aS'AIzaSyD0c-MD88_OxxtcHJgQTkHc6sB-ywNpyL8'
p246
aS'AIzaSyBthbYsf3SUWrUbxQqiFqiUtaOEIa26MZI'
p247
aS'AIzaSyCH4tGcwUhAY6JOYqySask-gVHOseXFW9g'
p248
aS'AIzaSyDrsuzhZ_6I7xAK-ZKz3otucYOGad1BStg'
p249
aS'AIzaSyAZZZmJTbLvNc9AmUb9Of4CxeHRaH2mPs0'
p250
aS'AIzaSyDxbPwHo7byrFqRYnsMBoFJvEBgD6PQlfE'
p251
aS'AIzaSyA9Itwk9Xof2TpoFhHyapxgklkUEbwql58'
p252
aS'AIzaSyAI8qYaGGLQ7XewaIjNcjHfrWQ08Yt1Hvw'
p253
aS'AIzaSyAY4UG7L9Q2TLXzZgPdaTLzrrigTh03SwM'
p254
aS'AIzaSyA-jqUAe2DXMQDz7zLVc-WHk9xQj9jWa8U'
p255
aS'AIzaSyBF3GrIpGUdrYIzyCbW8k7W2eBUH9Cvkik'
p256
aS'AIzaSyCJhWDzXSaUw0msyn6PWqNyKK4iuTH2NBY'
p257
aS'AIzaSyA-guHGVQyGpKEcNGo6ROjeAAfMcfdgKDo'
p258
aS'AIzaSyAg2e3xk1CEr1ZhtLn-4vMudUMzJo5og0I'
p259
aS'AIzaSyDlXhKxjFl3eH_-SxB9TSL1xUJ9VjAA5ZE'
p260
aS'AIzaSyBRHsv7NpsQm5QwjWbi9aHkkyNn-XqPq3I'
p261
aS'AIzaSyDX42Oq8bcep3xzsokmALdDJtpNCOdksYw'
p262
aS'AIzaSyDl8HML2Xb0lzcUNu3PlldgInjl-7Ry-9c'
p263
aS'AIzaSyCKTO0aVAgISO0WTc1t8w5jKuiH7oIu5hc'
p264
aS'AIzaSyDKaB0Q-2PaZE2Jfq_bCfTs7YL3IRIAtBs'
p265
aS'AIzaSyDLzkuuFZPU7dY-mfFhcEDos_ssDtDJgCk'
p266
aS'AIzaSyCsw4BTAkpnTdC3bu2bVFwPF7vxatDy4qs'
p267
aS'AIzaSyBUL3xpQREKdU14huP2j7XxO8fyNKV3XtQ'
p268
aS'AIzaSyA-0reg-ApFposhfWG2ao9uBB6Wsh64EiQ'
p269
aS'AIzaSyDzR7B4vSi06iV3G4jakK6Sq_17e7BM0qQ'
p270
aS'AIzaSyBCgsuR_J5E_WNqzMorY4TAyTGQ-j4Mdpw'
p271
aS'AIzaSyC_Z1DO0ld2UmdBehrJ_0TDsZRf0t3Cp-g'
p272
aS'AIzaSyAxi8u3ZEuIUeTS6eXZQ34XrLyYNfgHc0k'
p273
aS'AIzaSyAqX8PmdicEIKNFc7YCdl_Gso4cM7rez50'
p274
aS'AIzaSyDn24lDC13VY-o5G6yJ9NZ746Y5o4ZyM8s'
p275
aS'AIzaSyB5uhYI9kk5K7w6sGZYSudjfjuVrYSZY3Y'
p276
aS'AIzaSyB5vi-oqDtJKM-pyVvhUjWanypSjOdDrUU'
p277
aS'AIzaSyCBEtyJ8WHlvTiyjEPMxGEnqF4vNgjNnLI'
p278
aS'AIzaSyAO_CSRYyerxv4ZgK6D6sZWG23fsiLQZ34'
p279
aS'AIzaSyA1anbTcfmqDFwVk7i1ZZwUSwAa2AWIs0E'
p280
aS'AIzaSyATAXODi5NjP3VpSVSJNJT68hzOIfXUeQM'
p281
aS'AIzaSyDh90FS0AfUzp9QFG_XiBhGHP_5m38d6po'
p282
aS'AIzaSyAWdCaj1HpLHfyHSB8aeL9cN23mvd9L26s'
p283
aS'AIzaSyCPiF3ImfsBmmod8yrU4VEMzx7U2nLh7aE'
p284
aS'AIzaSyB1Qg8jB7Awip5SF6bNdvUliDHg63EDx54'
p285
aS'AIzaSyBCMydlqxJYP74QAf2hAsNXaeE3Jn5RBrg'
p286
aS'AIzaSyBbUqVvpaRRNTx5lW4Cu3rd5L22-ZCyG70'
p287
aS'AIzaSyBiRglgUfOzrMb59LfCUgjPVIMjZJPbmdw'
p288
aS'AIzaSyDqvOIQnabvWCl3UqVfsUOH9z0mX1IMSDE'
p289
aS'AIzaSyBRGmu1dO4MzC5SEfRUZ2RyMkkA4LVkpd8'
p290
aS'AIzaSyCzqTboHoGsBXpCpxr83VZCg6UGR_079BM'
p291
aS'AIzaSyAB0lJNdvn1wxE4FNsXk6zwfihYLFxgUTk'
p292
aS'AIzaSyD7Niej1B_szsUwfaMpSGeW3SueYV_nEmA'
p293
aS'AIzaSyC7xFYN0EIanvRvMGtnSwH7FZiJDTt6CnQ'
p294
aS'AIzaSyA2At3DCVrQqSTdH4MEB6uAwz_LQQo7M04'
p295
aS'AIzaSyAYl8Q3HyFbDGsMEXKk3u9WqpHiqjj00WI'
p296
aS'AIzaSyCKtVjZfX64SN0IDW9_adFxO3QQe9Aa1uM'
p297
aS'AIzaSyBlQNibyt2yeXuzqxO5LLu02WkCaEpTQbI'
p298
aS'AIzaSyD6Wa8Rlhw0LECWVrVZxccgxj5bPkquUug'
p299
aS'AIzaSyBJdGOilEgWFXPeJSu9PR-c_9hJC3L7aOs'
p300
aS'AIzaSyBKA74WMtbNN1OK_PmnjsR0SjwbLZ3RBvQ'
p301
aS'AIzaSyBV68bYR01pHnp57NO9dKrzSk49wDeB2co'
p302
aS'AIzaSyBA4jufP1D1n5u8f7ouRnWesUmnVJJFqTA'
p303
aS'AIzaSyB3BgaF07jSaA_cCKiZeFNveQ9HmvsLio8'
p304
aS'AIzaSyDJNxh99SchhWB7XHMn8sI-il6LMXy8B9o'
p305
aS'AIzaSyAqmMd57rSL8LO1yWv-HTOzwA9WYatHxD0'
p306
aS'AIzaSyB0RrhNK1gWMIhdGTgoFDfphAaAQvFe3vM'
p307
aS'AIzaSyDQ-Sofqt-2Z5Mz9ezuo9UE4y-N8zN9fb0'
p308
aS'AIzaSyB686BJraHu2Hk1ZkAo9gI0sYOl4ODIIAw'
p309
aS'AIzaSyD8OLdPRI-0PgEnA5PTiNsGfcJt5TtEvxQ'
p310
aS'AIzaSyDrtOAgYWsHqqjIOFinHAUCS0GyVFKmT04'
p311
aS'AIzaSyDHQSXunn_XAKL21fOicX64sUiZN6jZuOk'
p312
aS'AIzaSyBbjPGvPOiQpoOCc2nwPWt81grNQuwG0CU'
p313
aS'AIzaSyCM_UcZMBFqPoc6s92Jr81qq7wFFN940Oo'
p314
aS'AIzaSyBIyFhNGUApdvwNVCS5ZebBpPfB_06QbJk'
p315
aS'AIzaSyDBHez3z32ZYLauQGeSlgD2VrjiCrSmZOU'
p316
aS'AIzaSyCpg-QD-hpJ6UCBM-MNrB9040I6dd0H44s'
p317
aS'AIzaSyAMKGgsDYBa2iFr4LlWhkdorfHuLis8LV0'
p318
aS'AIzaSyCZ6M1G2q9u0nOeFhXfZGOc28AQpYnzPnM'
p319
aS'AIzaSyAjuQnqtVyVgMjCet30737K9N9lc5Xq4-g'
p320
aS'AIzaSyDXMscERkVTpl0B5c5pZAQmKsgnMUSo3o0'
p321
aS'AIzaSyBgAMSCqZAvyN59Nla3I6WSzbybr7Lw12U'
p322
aS'AIzaSyDK9UifMGv3_Eoe4IX8VuFFjSh_Q8ABgQk'
p323
aS'AIzaSyDK9UifMGv3_Eoe4IX8VuFFjSh_Q8ABgQk'
p324
aS'AIzaSyAJOm01NUA1sFlZgWTWvvMeDt-exQstPHA'
p325
aS'AIzaSyDs7oza1ahLimDGl85oF_nyYrAwe6JyqUM'
p326
aS'AIzaSyB94bGE1-27_mAn8MRl3twPFE-l9VKXDVk'
p327
aS'AIzaSyA11RpNsnXyG4LhiR-8zWH_VVgE8cnq57U'
p328
aS'AIzaSyD2fmFEbEN5EzavxWaI_EstcFotPb1rISk'
p329
aS'AIzaSyAS27aY8Xj3lGXuGpGq-i7aQEoiycNYDHE'
p330
aS'AIzaSyDu7U278C0u9-LK8JMqgNUaYx-JmKKLFCg'
p331
aS'AIzaSyD2tBRJvIgQO4gtdQRRK-iaFzyR7bn_260'
p332
aS'AIzaSyC_Z0F3aWDXMdXXoUkhDR6G9bFd91k2V7k'
p333
aS'AIzaSyDEqKxzBVcCmLLCPy1Nn7KSWLrSPAjr7Lc'
p334
aS'AIzaSyCcWWVX2irRXEjW-XfrZlpatb8P61Re6kg'
p335
aS'AIzaSyBVOpV4U3l-iIbk59ZkVVDAVGyHBiorB3I'
p336
aS'AIzaSyDipiGU_INWPibOBdbSsPIWUydPznnunHc'
p337
aS'AIzaSyBZTj5nikomyYnamcztPnKaRil6zBSCoc8'
p338
aS'AIzaSyAj_oLJBRjb2LrFM1eqnUBNPrXHdEpCP6w'
p339
aS'AIzaSyAX9q7TGLLwwyZabeFOouzMaVDnGfbQ2Ho'
p340
aS'AIzaSyCZTSvy36uCswML8WJsQU3Q2zGiuqEp-hY'
p341
a.
